target datalayout = "e-m:e-p270:32:32-p271:32:32-p272:64:64-i64:64-i128:128-f80:128-n8:16:32:64-S128"
target triple = "x86_64-pc-linux-gnu"

%struct._lv_table_t = type { %struct._lv_obj_t, i32, i32, ptr, ptr, ptr, i32, i32 }
%struct._lv_obj_t = type { ptr, ptr, ptr, ptr, ptr, %struct.lv_area_t, i32, i16, i16 }
%struct.lv_area_t = type { i32, i32, i32, i32 }

; Function Attrs: nounwind uwtable
define void @lv_table_get_selected_cell(ptr noundef %0, ptr noundef %1, ptr noundef %2) #0 {
  %4 = alloca ptr, align 8
  %5 = alloca ptr, align 8
  %6 = alloca ptr, align 8
  %7 = alloca ptr, align 8
  store ptr %0, ptr %4, align 8, !tbaa !8
  store ptr %1, ptr %5, align 8, !tbaa !66
  store ptr %2, ptr %6, align 8, !tbaa !66
  call void @llvm.lifetime.start.p0(i64 8, ptr %7) #6
  %8 = load ptr, ptr %4, align 8, !tbaa !8
  store ptr %8, ptr %7, align 8, !tbaa !10
  %9 = load ptr, ptr %7, align 8, !tbaa !10
  %10 = getelementptr inbounds nuw %struct._lv_table_t, ptr %9, i32 0, i32 7
  %11 = load i32, ptr %10, align 4, !tbaa !29
  %12 = load ptr, ptr %5, align 8, !tbaa !66
  store i32 %11, ptr %12, align 4, !tbaa !25
  %13 = load ptr, ptr %7, align 8, !tbaa !10
  %14 = getelementptr inbounds nuw %struct._lv_table_t, ptr %13, i32 0, i32 6
  %15 = load i32, ptr %14, align 8, !tbaa !30
  %16 = load ptr, ptr %6, align 8, !tbaa !66
  store i32 %15, ptr %16, align 4, !tbaa !25
  call void @llvm.lifetime.end.p0(i64 8, ptr %7) #6
  ret void
}