; Function Attrs: mustprogress nofree norecurse nosync nounwind willreturn memory(argmem: readwrite) uwtable
define void @lv_table_get_selected_cell(ptr noundef readonly captures(none) %0, ptr noundef writeonly captures(none) initializes((0, 4)) %1, ptr noundef writeonly captures(none) initializes((0, 4)) %2) local_unnamed_addr #6 {
  %4 = getelementptr inbounds nuw i8, ptr %0, i64 100
  %5 = load i32, ptr %4, align 4, !tbaa !25
  store i32 %5, ptr %1, align 4, !tbaa !21
  %6 = getelementptr inbounds nuw i8, ptr %0, i64 96
  %7 = load i32, ptr %6, align 8, !tbaa !26
  store i32 %7, ptr %2, align 4, !tbaa !21
  ret void
}